; Function Attrs: mustprogress nofree norecurse nosync nounwind willreturn memory(readwrite, inaccessiblemem: none) uwtable
define range(i32 0, 128) i32 @ff_vvc_tu_joint_cbcr_residual_flag(ptr noundef readonly captures(none) %0, i32 noundef %1, i32 noundef %2) local_unnamed_addr #2 {
  %4 = getelementptr inbounds nuw i8, ptr %0, i64 4580560
  %5 = load ptr, ptr %4, align 16, !tbaa !67
  %6 = getelementptr inbounds nuw i8, ptr %5, i64 2672
  %7 = getelementptr inbounds nuw i8, ptr %5, i64 400
  %8 = shl nsw i32 %1, 1
  %9 = add nsw i32 %8, 148
  %10 = add nsw i32 %9, %2
  %11 = sext i32 %10 to i64
  %12 = getelementptr %struct.VVCCabacState, ptr %7, i64 %11
  %13 = getelementptr i8, ptr %12, i64 -6
  %14 = getelementptr inbounds nuw i8, ptr %5, i64 2676
  %15 = load i32, ptr %14, align 4, !tbaa !100
  %16 = ashr i32 %15, 5
  %17 = getelementptr i8, ptr %12, i64 -4
  %18 = load i16, ptr %17, align 2, !tbaa !58
  %19 = zext i16 %18 to i32
  %20 = load i16, ptr %13, align 2, !tbaa !58
  %21 = zext i16 %20 to i32
  %22 = shl nuw nsw i32 %21, 4
  %23 = add nuw nsw i32 %22, %19
  %.not.i = icmp samesign ult i32 %23, 16384
  %24 = sub nsw i32 32767, %23
  %25 = select i1 %.not.i, i32 %23, i32 %24
  %26 = ashr i32 %25, 9
  %27 = mul nsw i32 %26, %16
  %28 = ashr i32 %27, 1
  %29 = add nsw i32 %28, 4
  %30 = sub nsw i32 %15, %29
  %31 = shl i32 %30, 17
  %32 = load i32, ptr %6, align 8, !tbaa !70
  %33 = icmp slt i32 %31, %32
  %34 = select i1 %33, i32 %31, i32 0
  %35 = sub nsw i32 %32, %34
  %36 = select i1 %33, i32 %29, i32 %30
  %37 = sext i32 %36 to i64
  %38 = getelementptr inbounds i8, ptr @ff_h264_cabac_tables, i64 %37
  %39 = load i8, ptr %38, align 1, !tbaa !97
  %40 = zext i8 %39 to i32
  %41 = shl i32 %36, %40
  store i32 %41, ptr %14, align 4, !tbaa !100
  %42 = shl i32 %35, %40
  store i32 %42, ptr %6, align 8, !tbaa !70
  %43 = and i32 %42, 65535
  %.not42.i = icmp eq i32 %43, 0
  br i1 %.not42.i, label %44, label %vvc_get_cabac.exit

44:                                               ; preds = %3
  %45 = add nsw i32 %42, -1
  %46 = xor i32 %45, %42
  %47 = lshr i32 %46, 15
  %48 = zext nneg i32 %47 to i64
  %49 = getelementptr inbounds nuw i8, ptr @ff_h264_cabac_tables, i64 %48
  %50 = load i8, ptr %49, align 1, !tbaa !97
  %51 = zext i8 %50 to i32
  %52 = sub nsw i32 7, %51
  %53 = getelementptr inbounds nuw i8, ptr %5, i64 2688
  %54 = load ptr, ptr %53, align 8, !tbaa !68
  %55 = load i8, ptr %54, align 1, !tbaa !97
  %56 = zext i8 %55 to i32
  %57 = shl nuw nsw i32 %56, 9
  %58 = getelementptr inbounds nuw i8, ptr %54, i64 1
  %59 = load i8, ptr %58, align 1, !tbaa !97
  %60 = zext i8 %59 to i32
  %61 = shl nuw nsw i32 %60, 1
  %62 = or disjoint i32 %61, %57
  %63 = add nsw i32 %62, -65535
  %64 = shl nsw i32 %63, %52
  %65 = add i32 %64, %42
  store i32 %65, ptr %6, align 8, !tbaa !70
  %66 = getelementptr inbounds nuw i8, ptr %5, i64 2696
  %67 = load ptr, ptr %66, align 8, !tbaa !71
  %68 = icmp ult ptr %54, %67
  br i1 %68, label %69, label %vvc_get_cabac.exit

69:                                               ; preds = %44
  %70 = getelementptr inbounds nuw i8, ptr %54, i64 2
  store ptr %70, ptr %53, align 8, !tbaa !68
  br label %vvc_get_cabac.exit

vvc_get_cabac.exit:                               ; preds = %3, %44, %69
  %71 = lshr i32 %23, 14
  %72 = zext i1 %33 to i32
  %73 = xor i32 %71, %72
  %74 = getelementptr i8, ptr %12, i64 -2
  %75 = load i8, ptr %74, align 2, !tbaa !97
  %76 = zext i8 %75 to i32
  %77 = lshr i32 %21, %76
  %78 = sub nsw i32 %21, %77
  %79 = mul nuw nsw i32 %73, 1023
  %80 = lshr i32 %79, %76
  %81 = add nsw i32 %78, %80
  %82 = trunc i32 %81 to i16
  store i16 %82, ptr %13, align 2, !tbaa !58
  %83 = getelementptr i8, ptr %12, i64 -1
  %84 = load i8, ptr %83, align 1, !tbaa !97
  %85 = zext i8 %84 to i32
  %86 = lshr i32 %19, %85
  %87 = sub nsw i32 %19, %86
  %88 = mul nuw nsw i32 %73, 16383
  %89 = lshr i32 %88, %85
  %90 = add nsw i32 %87, %89
  %91 = trunc i32 %90 to i16
  store i16 %91, ptr %17, align 2, !tbaa !58
  ret i32 %73
}